; Function Attrs: mustprogress uwtable
define noundef double @_ZNK8QuantLib19FdmVPPStepCondition6evolveERKNS_19FdmLinearOpIteratorEd(ptr nocapture noundef nonnull readonly align 8 dereferenceable(160) %this, ptr noundef nonnull align 8 dereferenceable(56) %iter, double noundef %t) local_unnamed_addr #4 align 2 personality ptr @__gxx_personality_v0 {
entry:
  %__args.addr.i = alloca double, align 8
  %coordinates_.i = getelementptr inbounds nuw i8, ptr %iter, i64 32
  %stateDirection_ = getelementptr inbounds nuw i8, ptr %this, i64 72
  %0 = load i64, ptr %stateDirection_, align 8, !tbaa !46
  %1 = load ptr, ptr %coordinates_.i, align 8, !tbaa !55
  %add.ptr.i = getelementptr inbounds nuw i64, ptr %1, i64 %0
  %2 = load i64, ptr %add.ptr.i, align 8, !tbaa !8
  %stateEvolveFcts_ = getelementptr inbounds nuw i8, ptr %this, i64 136
  %3 = load ptr, ptr %stateEvolveFcts_, align 8, !tbaa !50
  %_M_manager.i.i = getelementptr inbounds nuw %"class.std::function", ptr %3, i64 %2, i32 0, i32 1
  %4 = load ptr, ptr %_M_manager.i.i, align 8, !tbaa !61
  %tobool.not.i.i.not = icmp eq ptr %4, null
  br i1 %tobool.not.i.i.not, label %cleanup, label %if.else

if.else:                                          ; preds = %entry
  %sparkSpreadPrice_ = getelementptr inbounds nuw i8, ptr %this, i64 120
  %5 = load ptr, ptr %sparkSpreadPrice_, align 8, !tbaa !49
  %cmp.not.i = icmp eq ptr %5, null
  br i1 %cmp.not.i, label %cond.false.i, label %_ZNK5boost10shared_ptrIN8QuantLib23FdmInnerValueCalculatorEEptEv.exit, !prof !52

cond.false.i:                                     ; preds = %if.else
  tail call void @_ZN5boost16assertion_failedEPKcS1_S1_l(ptr noundef nonnull @.str.9, ptr noundef nonnull @__PRETTY_FUNCTION__._ZNK5boost10shared_ptrIN8QuantLib23FdmInnerValueCalculatorEEptEv, ptr noundef nonnull @.str.10, i64 noundef 784)
  %.pre.i = load ptr, ptr %sparkSpreadPrice_, align 8, !tbaa !49
  br label %_ZNK5boost10shared_ptrIN8QuantLib23FdmInnerValueCalculatorEEptEv.exit

_ZNK5boost10shared_ptrIN8QuantLib23FdmInnerValueCalculatorEEptEv.exit: ; preds = %if.else, %cond.false.i
  %6 = phi ptr [ %5, %if.else ], [ %.pre.i, %cond.false.i ]
  %vtable = load ptr, ptr %6, align 8, !tbaa !14
  %vfn = getelementptr inbounds i8, ptr %vtable, i64 16
  %7 = load ptr, ptr %vfn, align 8
  %call6 = tail call noundef double %7(ptr noundef nonnull align 8 dereferenceable(8) %6, ptr noundef nonnull align 8 dereferenceable(56) %iter, double noundef %t)
  %8 = load ptr, ptr %stateEvolveFcts_, align 8, !tbaa !50
  %add.ptr.i4 = getelementptr inbounds nuw %"class.std::function", ptr %8, i64 %2
  call void @llvm.lifetime.start.p0(i64 8, ptr nonnull %__args.addr.i)
  store double %call6, ptr %__args.addr.i, align 8, !tbaa !87
  %_M_manager.i.i5 = getelementptr inbounds nuw i8, ptr %add.ptr.i4, i64 16
  %9 = load ptr, ptr %_M_manager.i.i5, align 8, !tbaa !61
  %tobool.not.i.i6 = icmp eq ptr %9, null
  br i1 %tobool.not.i.i6, label %if.then.i, label %_ZNKSt8functionIFddEEclEd.exit

if.then.i:                                        ; preds = %_ZNK5boost10shared_ptrIN8QuantLib23FdmInnerValueCalculatorEEptEv.exit
  tail call void @_ZSt25__throw_bad_function_callv() #25
  unreachable

_ZNKSt8functionIFddEEclEd.exit:                   ; preds = %_ZNK5boost10shared_ptrIN8QuantLib23FdmInnerValueCalculatorEEptEv.exit
  %_M_invoker.i = getelementptr inbounds nuw i8, ptr %add.ptr.i4, i64 24
  %10 = load ptr, ptr %_M_invoker.i, align 8, !tbaa !88
  %call2.i = call noundef double %10(ptr noundef nonnull align 8 dereferenceable(16) %add.ptr.i4, ptr noundef nonnull align 8 dereferenceable(8) %__args.addr.i)
  call void @llvm.lifetime.end.p0(i64 8, ptr nonnull %__args.addr.i)
  br label %cleanup

cleanup:                                          ; preds = %entry, %_ZNKSt8functionIFddEEclEd.exit
  %retval.0 = phi double [ %call2.i, %_ZNKSt8functionIFddEEclEd.exit ], [ 0.000000e+00, %entry ]
  ret double %retval.0
}